; ModuleID = '53/577.c'
source_filename = "53/577.c"
target datalayout = "e-m:e-p270:32:32-p271:32:32-p272:64:64-i64:64-f80:128-n8:16:32:64-S128"
target triple = "x86_64-pc-linux-gnu"

@.str = private unnamed_addr constant [3 x i8] c"%d\00", align 1
@.str.1 = private unnamed_addr constant [2 x i8] c",\00", align 1

; Function Attrs: noinline nounwind uwtable
define dso_local void @main() #0 {
  %1 = alloca [300 x i32], align 16
  %2 = alloca i32, align 4
  %3 = alloca i32, align 4
  %4 = alloca i32, align 4
  %5 = alloca i32, align 4
  %6 = alloca i32, align 4
  store i32 0, i32* %5, align 4
  store i32 0, i32* %6, align 4
  %7 = call i32 (i8*, ...) @__isoc99_scanf(i8* getelementptr inbounds ([3 x i8], [3 x i8]* @.str, i64 0, i64 0), i32* %2)
  store i32 0, i32* %3, align 4
  br label %8

8:                                                ; preds = %52, %0
  %9 = load i32, i32* %5, align 4
  %10 = add nsw i32 %9, 1
  store i32 %10, i32* %5, align 4
  %11 = load i32, i32* %5, align 4
  %12 = load i32, i32* %2, align 4
  %13 = add nsw i32 %12, 1
  %14 = icmp eq i32 %11, %13
  br i1 %14, label %15, label %16

15:                                               ; preds = %8
  br label %55

16:                                               ; preds = %8
  %17 = load i32, i32* %3, align 4
  %18 = sext i32 %17 to i64
  %19 = getelementptr inbounds [300 x i32], [300 x i32]* %1, i64 0, i64 %18
  %20 = call i32 (i8*, ...) @__isoc99_scanf(i8* getelementptr inbounds ([3 x i8], [3 x i8]* @.str, i64 0, i64 0), i32* %19)
  store i32 0, i32* %4, align 4
  br label %21

21:                                               ; preds = %37, %16
  %22 = load i32, i32* %4, align 4
  %23 = load i32, i32* %3, align 4
  %24 = icmp slt i32 %22, %23
  br i1 %24, label %25, label %40

25:                                               ; preds = %21
  %26 = load i32, i32* %4, align 4
  %27 = sext i32 %26 to i64
  %28 = getelementptr inbounds [300 x i32], [300 x i32]* %1, i64 0, i64 %27
  %29 = load i32, i32* %28, align 4
  %30 = load i32, i32* %3, align 4
  %31 = sext i32 %30 to i64
  %32 = getelementptr inbounds [300 x i32], [300 x i32]* %1, i64 0, i64 %31
  %33 = load i32, i32* %32, align 4
  %34 = icmp eq i32 %29, %33
  br i1 %34, label %35, label %36

35:                                               ; preds = %25
  br label %40

36:                                               ; preds = %25
  br label %37

37:                                               ; preds = %36
  %38 = load i32, i32* %4, align 4
  %39 = add nsw i32 %38, 1
  store i32 %39, i32* %4, align 4
  br label %21

40:                                               ; preds = %35, %21
  %41 = load i32, i32* %4, align 4
  %42 = load i32, i32* %3, align 4
  %43 = icmp eq i32 %41, %42
  br i1 %43, label %44, label %47

44:                                               ; preds = %40
  %45 = load i32, i32* %6, align 4
  %46 = add nsw i32 %45, 1
  store i32 %46, i32* %6, align 4
  br label %50

47:                                               ; preds = %40
  %48 = load i32, i32* %3, align 4
  %49 = add nsw i32 %48, -1
  store i32 %49, i32* %3, align 4
  br label %50

50:                                               ; preds = %47, %44
  %51 = phi i32 [ %45, %44 ], [ %48, %47 ]
  br label %52

52:                                               ; preds = %50
  %53 = load i32, i32* %3, align 4
  %54 = add nsw i32 %53, 1
  store i32 %54, i32* %3, align 4
  br label %8

55:                                               ; preds = %15
  store i32 0, i32* %3, align 4
  br label %56

56:                                               ; preds = %73, %55
  %57 = load i32, i32* %3, align 4
  %58 = load i32, i32* %6, align 4
  %59 = icmp slt i32 %57, %58
  br i1 %59, label %60, label %76

60:                                               ; preds = %56
  %61 = load i32, i32* %3, align 4
  %62 = sext i32 %61 to i64
  %63 = getelementptr inbounds [300 x i32], [300 x i32]* %1, i64 0, i64 %62
  %64 = load i32, i32* %63, align 4
  %65 = call i32 (i8*, ...) @printf(i8* getelementptr inbounds ([3 x i8], [3 x i8]* @.str, i64 0, i64 0), i32 %64)
  %66 = load i32, i32* %3, align 4
  %67 = load i32, i32* %6, align 4
  %68 = sub nsw i32 %67, 1
  %69 = icmp ne i32 %66, %68
  br i1 %69, label %70, label %72

70:                                               ; preds = %60
  %71 = call i32 (i8*, ...) @printf(i8* getelementptr inbounds ([2 x i8], [2 x i8]* @.str.1, i64 0, i64 0))
  br label %72

72:                                               ; preds = %70, %60
  br label %73

73:                                               ; preds = %72
  %74 = load i32, i32* %3, align 4
  %75 = add nsw i32 %74, 1
  store i32 %75, i32* %3, align 4
  br label %56

76:                                               ; preds = %56
  ret void
}

declare dso_local i32 @__isoc99_scanf(i8*, ...) #1

declare dso_local i32 @printf(i8*, ...) #1


!llvm.module.flags = !{!0}
!llvm.ident = !{!1}

!0 = !{i32 1, !"wchar_size", i32 4}
!1 = !{!"clang version 10.0.0-4ubuntu1 "}
